Certificate:
    Data:
        Version: 1 (0x0)
        Serial Number: 2 (0x2)
    Signature Algorithm: md5WithRSAEncryption
        Issuer: C=cn, ST=shanghai, L=shanghai, O=avplayer.org, OU=Certificate Agency of avplayer.org, CN=avplayer.org community CA Root/emailAddress=ca@avplayer.org
        Validity
            Not Before: Nov  7 11:10:03 2014 GMT
            Not After : Nov  7 11:10:03 2015 GMT
        Subject: C=cn, ST=shanghai, L=shanghai, O=avplayer.org, OU=avim, CN=test-route/emailAddress=test-route@avplayer.org
        Subject Public Key Info:
            Public Key Algorithm: rsaEncryption
                Public-Key: (1024 bit)
                Modulus:
                    00:c4:01:6a:01:27:33:bf:85:b2:fa:08:93:57:f8:
                    b9:66:3d:05:cc:51:43:3e:2c:3e:ae:d6:c9:58:98:
                    d2:54:4d:73:b4:de:cc:9e:2f:be:bb:90:ef:f5:72:
                    32:80:f4:4f:0c:1e:ad:5a:1b:c8:2c:a1:55:0c:cf:
                    a1:72:41:0a:4e:8a:24:8d:1b:7a:5f:87:38:8c:91:
                    82:b5:db:80:ba:f2:e8:05:b7:6b:1d:29:0d:4d:42:
                    6b:25:a5:48:34:b8:8b:7e:51:28:9e:c5:1b:3a:94:
                    b1:52:1d:15:ef:7a:7e:62:e0:53:bb:62:9c:8a:c6:
                    e6:2b:66:59:8a:a7:51:d4:4b
                Exponent: 65537 (0x10001)
    Signature Algorithm: md5WithRSAEncryption
         0e:85:5d:98:00:c3:8e:3d:a7:ae:c0:3b:34:33:22:07:ed:c7:
         4f:bf:bb:57:17:30:27:33:f2:81:d8:ae:9f:fe:ac:6c:79:6c:
         24:41:39:2d:a5:a4:4b:18:5c:56:ed:4e:67:75:c0:3b:9d:bf:
         55:56:61:d0:a2:d2:60:be:f1:42:88:e7:f2:2b:96:f1:b5:1d:
         38:bb:4b:f2:aa:27:9b:24:62:8f:37:fe:bd:7b:f3:3f:be:35:
         34:7e:03:d8:d4:f7:98:3c:49:05:2d:99:f3:ee:fd:12:a2:86:
         cd:44:7e:b8:14:9f:5d:6c:d3:40:58:c8:ea:f2:b4:74:b9:57:
         cc:63:bc:39:e0:e4:95:a9:90:61:61:3c:2c:b8:31:64:47:3c:
         a9:23:0f:56:ff:36:9b:fe:7a:a7:79:d8:a1:75:5b:5f:e9:b6:
         6a:4f:2f:34:c3:ce:10:0e:8a:77:3f:79:6c:bd:50:d6:c8:6b:
         1a:08:86:17:71:96:8a:ae:2e:26:08:09:68:38:82:4c:b6:91:
         dc:27:17:f6:f5:bb:13:ff:2f:3e:78:d9:60:f1:83:ee:bf:ec:
         f9:f1:58:87:e3:a3:cc:65:e4:66:c1:d3:06:3e:c0:5d:15:6e:
         68:82:b1:6f:9c:13:9b:bf:a6:1c:0e:a8:e3:67:d9:f1:f0:55:
         9b:e0:60:ef:52:f7:99:7f:c7:e9:a1:78:9f:df:df:74:76:22:
         aa:8f:8f:21:21:33:34:29:36:9b:75:dc:c1:0b:42:d7:70:5b:
         d4:cd:b3:79:d4:61:20:45:24:a9:04:dd:c4:77:7b:d3:df:73:
         98:10:ef:fc:fe:88:4a:63:10:95:ba:0b:b5:1d:df:e2:4e:35:
         0a:94:f5:12:9b:49:68:62:24:1a:29:1e:ba:d0:c9:f1:c7:91:
         79:2a:79:27:3b:5d:21:f2:d1:88:2d:91:06:34:70:b7:33:3b:
         f1:06:38:60:24:bb:0d:54:d3:3f:13:ee:13:e7:a1:36:9f:31:
         02:d1:af:8d:ab:c3:fb:4c:78:71:b4:6b:65:92:ba:cd:23:d0:
         c7:c0:03:c2:5f:43:47:19:2a:0a:66:e0:e6:33:8e:1e:a7:ed:
         57:83:1c:16:0d:28:48:4e:8c:1c:94:c4:bc:25:09:13:dc:5f:
         fe:38:81:6b:d1:e1:bd:6d:bf:aa:f4:df:42:22:63:8f:d2:8b:
         55:2f:30:38:fb:0f:7c:e9:c4:46:e4:c0:cc:28:2a:0f:57:57:
         c1:5e:18:5f:19:cb:b4:c9:2a:77:f3:8a:6d:e7:3b:7a:c9:50:
         ad:83:da:05:38:1a:a3:6e:31:5b:8e:d7:85:25:88:d5:d6:32:
         1c:59:e1:a6:be:3b:bf:88:05:e2:73:47:7c:b8:51:70:66:79:
         f2:6d:35:46:f2:8a:46:27:a2:85:b2:f0:c5:04:7b:ef:59:22:
         88:73:78:07:6b:77:c5:ba:c9:e7:1c:b6:8f:52:49:ec:ba:b1:
         57:a7:f3:6d:5d:27:6e:92:26:81:79:d4:4b:69:63:3c:2f:bc:
         52:18:b0:b2:7a:fe:8e:70:e9:50:de:42:2e:67:30:90:c5:5d:
         7a:43:fd:8c:2a:18:65:48:ac:97:2a:d0:cc:53:46:7b:6d:0a:
         55:af:ff:ad:7a:9c:7c:a9:c4:cd:c9:c9:dd:e2:61:52:1f:1c:
         7f:7d:a1:ff:a9:48:9b:b6:ef:f8:ec:4a:ed:fb:26:70:c6:d4:
         bb:a4:fc:1c:36:3d:1b:19:55:64:d6:44:56:71:54:85:e0:0a:
         ab:9c:63:58:89:22:ed:bb:94:8a:bd:a3:e7:78:77:74:36:57:
         dd:9e:3e:7f:12:bc:5d:8a:0f:2d:c1:ac:58:a0:b0:4f:a0:9b:
         b9:50:b4:22:3a:08:bb:45:20:04:17:2b:f8:b8:fa:28:e5:e2:
         30:15:d5:ac:ec:43:c3:51:0d:c0:20:87:ea:0a:6d:a7:6a:e4:
         0b:51:e6:61:16:71:de:29:ee:e9:25:98:d8:9f:34:58:6e:34:
         a2:c4:ac:a8:b5:45:cb:51:e4:78:16:3e:4e:ba:3f:55:5c:4e:
         bf:0d:75:f0:47:ff:41:72:c1:99:f0:9f:cc:4e:f3:e1:36:cd:
         36:b9:c4:da:11:9b:43:2c:6c:6f:ed:63:67:2c:a9:82:74:06:
         04:5b:56:0d:44:f8:c1:fd:02:b6:3a:69:36:48:79:5c:d9:a4:
         2c:f5:3c:f9:d6:3c:e9:1b:dd:8c:ba:3d:79:0b:20:1a:d6:2a:
         1c:93:c4:ff:8c:9a:b7:6f:6f:83:0d:85:2d:64:a6:01:01:2a:
         f4:72:f4:41:67:ee:4f:63:31:33:d2:b3:e4:31:26:f0:59:f7:
         55:35:5d:eb:3f:ad:c7:66:cc:68:dc:98:35:d1:b5:07:ff:25:
         c4:ed:67:ba:7a:74:1b:e4:f1:49:cc:d9:eb:3a:93:b7:9a:02:
         44:e9:24:72:75:1d:be:b7:83:02:81:b4:5e:27:27:a1:15:2e:
         ff:08:71:2a:4f:8a:a8:0b:26:5b:69:2d:48:94:79:80:bf:e7:
         f5:0b:85:e4:2a:e2:32:07:9a:91:8e:dc:cf:82:66:ea:29:c0:
         8f:99:8e:10:72:03:41:3f:de:7e:7e:a8:2b:58:c8:a7:8f:07:
         ba:2d:1a:e7:9a:57:be:88:4b:dc:73:4b:ab:11:18:4f:78:c6:
         2b:e3:6b:b6:88:29:ff:69:5f:a2:58:10:92:1d:ff:eb
-----BEGIN CERTIFICATE-----
MIIGSDCCAjACAQIwDQYJKoZIhvcNAQEEBQAwgcAxCzAJBgNVBAYTAmNuMREwDwYD
VQQIDAhzaGFuZ2hhaTERMA8GA1UEBwwIc2hhbmdoYWkxFTATBgNVBAoMDGF2cGxh
eWVyLm9yZzErMCkGA1UECwwiQ2VydGlmaWNhdGUgQWdlbmN5IG9mIGF2cGxheWVy
Lm9yZzEnMCUGA1UEAwweYXZwbGF5ZXIub3JnIGNvbW11bml0eSBDQSBSb290MR4w
HAYJKoZIhvcNAQkBFg9jYUBhdnBsYXllci5vcmcwHhcNMTQxMTA3MTExMDAzWhcN
MTUxMTA3MTExMDAzWjCBljELMAkGA1UEBhMCY24xETAPBgNVBAgMCHNoYW5naGFp
MREwDwYDVQQHDAhzaGFuZ2hhaTEVMBMGA1UECgwMYXZwbGF5ZXIub3JnMQ0wCwYD
VQQLDARhdmltMRMwEQYDVQQDDAp0ZXN0LXJvdXRlMSYwJAYJKoZIhvcNAQkBFhd0
ZXN0LXJvdXRlQGF2cGxheWVyLm9yZzCBnzANBgkqhkiG9w0BAQEFAAOBjQAwgYkC
gYEAxAFqASczv4Wy+giTV/i5Zj0FzFFDPiw+rtbJWJjSVE1ztN7Mni++u5Dv9XIy
gPRPDB6tWhvILKFVDM+hckEKTookjRt6X4c4jJGCtduAuvLoBbdrHSkNTUJrJaVI
NLiLflEonsUbOpSxUh0V73p+YuBTu2KcisbmK2ZZiqdR1EsCAwEAATANBgkqhkiG
9w0BAQQFAAOCBAEADoVdmADDjj2nrsA7NDMiB+3HT7+7VxcwJzPygdiun/6sbHls
JEE5LaWkSxhcVu1OZ3XAO52/VVZh0KLSYL7xQojn8iuW8bUdOLtL8qonmyRijzf+
vXvzP741NH4D2NT3mDxJBS2Z8+79EqKGzUR+uBSfXWzTQFjI6vK0dLlXzGO8OeDk
lamQYWE8LLgxZEc8qSMPVv82m/56p3nYoXVbX+m2ak8vNMPOEA6Kdz95bL1Q1shr
GgiGF3GWiq4uJggJaDiCTLaR3CcX9vW7E/8vPnjZYPGD7r/s+fFYh+OjzGXkZsHT
Bj7AXRVuaIKxb5wTm7+mHA6o42fZ8fBVm+Bg71L3mX/H6aF4n9/fdHYiqo+PISEz
NCk2m3XcwQtC13Bb1M2zedRhIEUkqQTdxHd7099zmBDv/P6ISmMQlboLtR3f4k41
CpT1EptJaGIkGikeutDJ8ceReSp5JztdIfLRiC2RBjRwtzM78QY4YCS7DVTTPxPu
E+ehNp8xAtGvjavD+0x4cbRrZZK6zSPQx8ADwl9DRxkqCmbg5jOOHqftV4McFg0o
SE6MHJTEvCUJE9xf/jiBa9HhvW2/qvTfQiJjj9KLVS8wOPsPfOnERuTAzCgqD1dX
wV4YXxnLtMkqd/OKbec7eslQrYPaBTgao24xW47XhSWI1dYyHFnhpr47v4gF4nNH
fLhRcGZ58m01RvKKRieihbLwxQR771kiiHN4B2t3xbrJ5xy2j1JJ7LqxV6fzbV0n
bpImgXnUS2ljPC+8Uhiwsnr+jnDpUN5CLmcwkMVdekP9jCoYZUislyrQzFNGe20K
Va//rXqcfKnEzcnJ3eJhUh8cf32h/6lIm7bv+OxK7fsmcMbUu6T8HDY9GxlVZNZE
VnFUheAKq5xjWIki7buUir2j53h3dDZX3Z4+fxK8XYoPLcGsWKCwT6CbuVC0IjoI
u0UgBBcr+Lj6KOXiMBXVrOxDw1ENwCCH6gptp2rkC1HmYRZx3inu6SWY2J80WG40
osSsqLVFy1HkeBY+Tro/VVxOvw118Ef/QXLBmfCfzE7z4TbNNrnE2hGbQyxsb+1j
ZyypgnQGBFtWDUT4wf0CtjppNkh5XNmkLPU8+dY86RvdjLo9eQsgGtYqHJPE/4ya
t29vgw2FLWSmAQEq9HL0QWfuT2MxM9Kz5DEm8Fn3VTVd6z+tx2bMaNyYNdG1B/8l
xO1nunp0G+TxSczZ6zqTt5oCROkkcnUdvreDAoG0XicnoRUu/whxKk+KqAsmW2kt
SJR5gL/n9QuF5CriMgeakY7cz4Jm6inAj5mOEHIDQT/efn6oK1jIp48Hui0a55pX
vohL3HNLqxEYT3jGK+Nrtogp/2lfolgQkh3/6w==
-----END CERTIFICATE-----
